target datalayout = "e-m:e-p270:32:32-p271:32:32-p272:64:64-i64:64-i128:128-f80:128-n8:16:32:64-S128"
target triple = "x86_64-pc-linux-gnu"

%"class.std::vector.8" = type { %"struct.std::_Vector_base.9" }
%"struct.std::_Vector_base.9" = type { %"struct.std::_Vector_base<int, std::allocator<int>>::_Vector_impl" }
%"struct.std::_Vector_base<int, std::allocator<int>>::_Vector_impl" = type { %"struct.std::_Vector_base<int, std::allocator<int>>::_Vector_impl_data" }
%"struct.std::_Vector_base<int, std::allocator<int>>::_Vector_impl_data" = type { ptr, ptr, ptr }
%"struct.(anonymous namespace)::VizConfig" = type { i32, i32, i32, i32, %"class.std::vector.3" }
%"class.std::vector.3" = type { %"struct.std::_Vector_base.4" }
%"struct.std::_Vector_base.4" = type { %"struct.std::_Vector_base<std::pair<(anonymous namespace)::VizConfig::group_type_t, Yosys::RTLIL::Selection>, std::allocator<std::pair<(anonymous namespace)::VizConfig::group_type_t, Yosys::RTLIL::Selection>>>::_Vector_impl" }
%"struct.std::_Vector_base<std::pair<(anonymous namespace)::VizConfig::group_type_t, Yosys::RTLIL::Selection>, std::allocator<std::pair<(anonymous namespace)::VizConfig::group_type_t, Yosys::RTLIL::Selection>>>::_Vector_impl" = type { %"struct.std::_Vector_base<std::pair<(anonymous namespace)::VizConfig::group_type_t, Yosys::RTLIL::Selection>, std::allocator<std::pair<(anonymous namespace)::VizConfig::group_type_t, Yosys::RTLIL::Selection>>>::_Vector_impl_data" }
%"struct.std::_Vector_base<std::pair<(anonymous namespace)::VizConfig::group_type_t, Yosys::RTLIL::Selection>, std::allocator<std::pair<(anonymous namespace)::VizConfig::group_type_t, Yosys::RTLIL::Selection>>>::_Vector_impl_data" = type { ptr, ptr, ptr }
%"struct.std::pair" = type { i32, [4 x i8], %"struct.Yosys::RTLIL::Selection" }
%"struct.Yosys::RTLIL::Selection" = type { i8, [7 x i8], %"class.Yosys::hashlib::pool", %"class.Yosys::hashlib::dict" }
%"class.Yosys::hashlib::pool" = type <{ %"class.std::vector.8", %"class.std::vector.13", [8 x i8] }>
%"class.std::vector.13" = type { %"struct.std::_Vector_base.14" }
%"struct.std::_Vector_base.14" = type { %"struct.std::_Vector_base<Yosys::hashlib::pool<Yosys::RTLIL::IdString>::entry_t, std::allocator<Yosys::hashlib::pool<Yosys::RTLIL::IdString>::entry_t>>::_Vector_impl" }
%"struct.std::_Vector_base<Yosys::hashlib::pool<Yosys::RTLIL::IdString>::entry_t, std::allocator<Yosys::hashlib::pool<Yosys::RTLIL::IdString>::entry_t>>::_Vector_impl" = type { %"struct.std::_Vector_base<Yosys::hashlib::pool<Yosys::RTLIL::IdString>::entry_t, std::allocator<Yosys::hashlib::pool<Yosys::RTLIL::IdString>::entry_t>>::_Vector_impl_data" }
%"struct.std::_Vector_base<Yosys::hashlib::pool<Yosys::RTLIL::IdString>::entry_t, std::allocator<Yosys::hashlib::pool<Yosys::RTLIL::IdString>::entry_t>>::_Vector_impl_data" = type { ptr, ptr, ptr }
%"class.Yosys::hashlib::dict" = type <{ %"class.std::vector.8", %"class.std::vector.18", [8 x i8] }>
%"class.std::vector.18" = type { %"struct.std::_Vector_base.19" }
%"struct.std::_Vector_base.19" = type { %"struct.std::_Vector_base<Yosys::hashlib::dict<Yosys::RTLIL::IdString, Yosys::hashlib::pool<Yosys::RTLIL::IdString>>::entry_t, std::allocator<Yosys::hashlib::dict<Yosys::RTLIL::IdString, Yosys::hashlib::pool<Yosys::RTLIL::IdString>>::entry_t>>::_Vector_impl" }
%"struct.std::_Vector_base<Yosys::hashlib::dict<Yosys::RTLIL::IdString, Yosys::hashlib::pool<Yosys::RTLIL::IdString>>::entry_t, std::allocator<Yosys::hashlib::dict<Yosys::RTLIL::IdString, Yosys::hashlib::pool<Yosys::RTLIL::IdString>>::entry_t>>::_Vector_impl" = type { %"struct.std::_Vector_base<Yosys::hashlib::dict<Yosys::RTLIL::IdString, Yosys::hashlib::pool<Yosys::RTLIL::IdString>>::entry_t, std::allocator<Yosys::hashlib::dict<Yosys::RTLIL::IdString, Yosys::hashlib::pool<Yosys::RTLIL::IdString>>::entry_t>>::_Vector_impl_data" }
%"struct.std::_Vector_base<Yosys::hashlib::dict<Yosys::RTLIL::IdString, Yosys::hashlib::pool<Yosys::RTLIL::IdString>>::entry_t, std::allocator<Yosys::hashlib::dict<Yosys::RTLIL::IdString, Yosys::hashlib::pool<Yosys::RTLIL::IdString>>::entry_t>>::_Vector_impl_data" = type { ptr, ptr, ptr }
%"struct.(anonymous namespace)::VizWorker" = type { %"struct.(anonymous namespace)::VizConfig", ptr, %"struct.(anonymous namespace)::Graph" }
%"struct.(anonymous namespace)::Graph" = type { i8, i32, %"class.std::vector.157", %"class.std::vector.157", %"class.std::vector.157", %"class.std::vector.157", ptr, ptr, %"class.std::vector.8", double, double, i32, i32 }
%"class.std::vector.157" = type { %"struct.std::_Vector_base.158" }
%"struct.std::_Vector_base.158" = type { %"struct.std::_Vector_base<(anonymous namespace)::GraphNode *, std::allocator<(anonymous namespace)::GraphNode *>>::_Vector_impl" }
%"struct.std::_Vector_base<(anonymous namespace)::GraphNode *, std::allocator<(anonymous namespace)::GraphNode *>>::_Vector_impl" = type { %"struct.std::_Vector_base<(anonymous namespace)::GraphNode *, std::allocator<(anonymous namespace)::GraphNode *>>::_Vector_impl_data" }
%"struct.std::_Vector_base<(anonymous namespace)::GraphNode *, std::allocator<(anonymous namespace)::GraphNode *>>::_Vector_impl_data" = type { ptr, ptr, ptr }

; Function Attrs: inlinehint mustprogress nounwind uwtable
define internal void @_ZNSt4pairIN12_GLOBAL__N_19VizConfig12group_type_tEN5Yosys5RTLIL9SelectionEED2Ev(ptr noundef nonnull align 8 dereferenceable(128) %0) unnamed_addr #7 align 2 {
  %2 = alloca ptr, align 8
  store ptr %0, ptr %2, align 8, !tbaa !89
  %3 = load ptr, ptr %2, align 8
  %4 = getelementptr inbounds nuw %"struct.std::pair", ptr %3, i32 0, i32 2
  call void @_ZN5Yosys5RTLIL9SelectionD2Ev(ptr noundef nonnull align 8 dereferenceable(120) %4) #3
  ret void
}

; Function Attrs: mustprogress nounwind uwtable
define internal void @_ZNSt15__new_allocatorISt4pairIN12_GLOBAL__N_19VizConfig12group_type_tEN5Yosys5RTLIL9SelectionEEE10deallocateEPS7_m(ptr noundef nonnull align 1 dereferenceable(1) %0, ptr noundef %1, i64 noundef %2) #6 align 2 {
  %4 = alloca ptr, align 8
  %5 = alloca ptr, align 8
  %6 = alloca i64, align 8
  store ptr %0, ptr %4, align 8, !tbaa !87
  store ptr %1, ptr %5, align 8, !tbaa !89
  store i64 %2, ptr %6, align 8, !tbaa !35
  %7 = load ptr, ptr %5, align 8, !tbaa !89
  %8 = load i64, ptr %6, align 8, !tbaa !35
  %9 = mul i64 %8, 128
  call void @_ZdlPvm(ptr noundef %7, i64 noundef %9) #22
  ret void
}

; Function Attrs: inlinehint mustprogress nounwind uwtable
define internal void @_ZSt8_DestroyISt4pairIN12_GLOBAL__N_19VizConfig12group_type_tEN5Yosys5RTLIL9SelectionEEEvPT_(ptr noundef %0) #7 {
  %2 = alloca ptr, align 8
  store ptr %0, ptr %2, align 8, !tbaa !89
  %3 = load ptr, ptr %2, align 8, !tbaa !89
  call void @_ZNSt4pairIN12_GLOBAL__N_19VizConfig12group_type_tEN5Yosys5RTLIL9SelectionEED2Ev(ptr noundef nonnull align 8 dereferenceable(128) %3) #3
  ret void
}

; Function Attrs: mustprogress uwtable
define internal void @_ZNSt16allocator_traitsISaISt4pairIN12_GLOBAL__N_19VizConfig12group_type_tEN5Yosys5RTLIL9SelectionEEEE10deallocateERS8_PS7_m(ptr noundef nonnull align 1 dereferenceable(1) %0, ptr noundef %1, i64 noundef %2) #4 align 2 {
  %4 = alloca ptr, align 8
  %5 = alloca ptr, align 8
  %6 = alloca i64, align 8
  store ptr %0, ptr %4, align 8, !tbaa !80
  store ptr %1, ptr %5, align 8, !tbaa !89
  store i64 %2, ptr %6, align 8, !tbaa !35
  %7 = load ptr, ptr %4, align 8, !tbaa !80
  %8 = load ptr, ptr %5, align 8, !tbaa !89
  %9 = load i64, ptr %6, align 8, !tbaa !35
  call void @_ZNSt15__new_allocatorISt4pairIN12_GLOBAL__N_19VizConfig12group_type_tEN5Yosys5RTLIL9SelectionEEE10deallocateEPS7_m(ptr noundef nonnull align 1 dereferenceable(1) %7, ptr noundef %8, i64 noundef %9)
  ret void
}

; Function Attrs: mustprogress uwtable
define internal void @_ZNSt12_Destroy_auxILb0EE9__destroyIPSt4pairIN12_GLOBAL__N_19VizConfig12group_type_tEN5Yosys5RTLIL9SelectionEEEEvT_SB_(ptr noundef %0, ptr noundef %1) #4 align 2 {
  %3 = alloca ptr, align 8
  %4 = alloca ptr, align 8
  store ptr %0, ptr %3, align 8, !tbaa !89
  store ptr %1, ptr %4, align 8, !tbaa !89
  br label %5

5:                                                ; preds = %11, %2
  %6 = load ptr, ptr %3, align 8, !tbaa !89
  %7 = load ptr, ptr %4, align 8, !tbaa !89
  %8 = icmp ne ptr %6, %7
  br i1 %8, label %9, label %14

9:                                                ; preds = %5
  %10 = load ptr, ptr %3, align 8, !tbaa !89
  call void @_ZSt8_DestroyISt4pairIN12_GLOBAL__N_19VizConfig12group_type_tEN5Yosys5RTLIL9SelectionEEEvPT_(ptr noundef %10)
  br label %11

11:                                               ; preds = %9
  %12 = load ptr, ptr %3, align 8, !tbaa !89
  %13 = getelementptr inbounds nuw %"struct.std::pair", ptr %12, i32 1
  store ptr %13, ptr %3, align 8, !tbaa !89
  br label %5, !llvm.loop !90

14:                                               ; preds = %5
  ret void
}

; Function Attrs: mustprogress nounwind uwtable
define internal void @_ZNSt15__new_allocatorISt4pairIN12_GLOBAL__N_19VizConfig12group_type_tEN5Yosys5RTLIL9SelectionEEED2Ev(ptr noundef nonnull align 1 dereferenceable(1) %0) unnamed_addr #6 align 2 {
  %2 = alloca ptr, align 8
  store ptr %0, ptr %2, align 8, !tbaa !87
  ret void
}

; Function Attrs: mustprogress uwtable
define internal void @_ZNSt12_Vector_baseISt4pairIN12_GLOBAL__N_19VizConfig12group_type_tEN5Yosys5RTLIL9SelectionEESaIS7_EE13_M_deallocateEPS7_m(ptr noundef nonnull align 8 dereferenceable(24) %0, ptr noundef %1, i64 noundef %2) #4 align 2 {
  %4 = alloca ptr, align 8
  %5 = alloca ptr, align 8
  %6 = alloca i64, align 8
  store ptr %0, ptr %4, align 8, !tbaa !76
  store ptr %1, ptr %5, align 8, !tbaa !89
  store i64 %2, ptr %6, align 8, !tbaa !35
  %7 = load ptr, ptr %4, align 8
  %8 = load ptr, ptr %5, align 8, !tbaa !89
  %9 = icmp ne ptr %8, null
  br i1 %9, label %10, label %14

10:                                               ; preds = %3
  %11 = getelementptr inbounds nuw %"struct.std::_Vector_base.4", ptr %7, i32 0, i32 0
  %12 = load ptr, ptr %5, align 8, !tbaa !89
  %13 = load i64, ptr %6, align 8, !tbaa !35
  call void @_ZNSt16allocator_traitsISaISt4pairIN12_GLOBAL__N_19VizConfig12group_type_tEN5Yosys5RTLIL9SelectionEEEE10deallocateERS8_PS7_m(ptr noundef nonnull align 1 dereferenceable(1) %11, ptr noundef %12, i64 noundef %13)
  br label %14

14:                                               ; preds = %10, %3
  ret void
}

; Function Attrs: inlinehint mustprogress uwtable
define internal void @_ZSt8_DestroyIPSt4pairIN12_GLOBAL__N_19VizConfig12group_type_tEN5Yosys5RTLIL9SelectionEEEvT_S9_(ptr noundef %0, ptr noundef %1) #9 {
  %3 = alloca ptr, align 8
  %4 = alloca ptr, align 8
  store ptr %0, ptr %3, align 8, !tbaa !89
  store ptr %1, ptr %4, align 8, !tbaa !89
  %5 = load ptr, ptr %3, align 8, !tbaa !89
  %6 = load ptr, ptr %4, align 8, !tbaa !89
  call void @_ZNSt12_Destroy_auxILb0EE9__destroyIPSt4pairIN12_GLOBAL__N_19VizConfig12group_type_tEN5Yosys5RTLIL9SelectionEEEEvT_SB_(ptr noundef %5, ptr noundef %6)
  ret void
}

; Function Attrs: noinline noreturn nounwind uwtable
define linkonce_odr hidden void @__clang_call_terminate(ptr noundef %0) #11 comdat {
  %2 = call ptr @__cxa_begin_catch(ptr %0) #3
  call void @_ZSt9terminatev() #21
  unreachable
}

; Function Attrs: mustprogress nounwind uwtable
define internal void @_ZNSt12_Vector_baseISt4pairIN12_GLOBAL__N_19VizConfig12group_type_tEN5Yosys5RTLIL9SelectionEESaIS7_EED2Ev(ptr noundef nonnull align 8 dereferenceable(24) %0) unnamed_addr #6 align 2 personality ptr @__gxx_personality_v0 {
  %2 = alloca ptr, align 8
  store ptr %0, ptr %2, align 8, !tbaa !76
  %3 = load ptr, ptr %2, align 8
  %4 = getelementptr inbounds nuw %"struct.std::_Vector_base.4", ptr %3, i32 0, i32 0
  %5 = getelementptr inbounds nuw %"struct.std::_Vector_base<std::pair<(anonymous namespace)::VizConfig::group_type_t, Yosys::RTLIL::Selection>, std::allocator<std::pair<(anonymous namespace)::VizConfig::group_type_t, Yosys::RTLIL::Selection>>>::_Vector_impl_data", ptr %4, i32 0, i32 0
  %6 = load ptr, ptr %5, align 8, !tbaa !84
  %7 = getelementptr inbounds nuw %"struct.std::_Vector_base.4", ptr %3, i32 0, i32 0
  %8 = getelementptr inbounds nuw %"struct.std::_Vector_base<std::pair<(anonymous namespace)::VizConfig::group_type_t, Yosys::RTLIL::Selection>, std::allocator<std::pair<(anonymous namespace)::VizConfig::group_type_t, Yosys::RTLIL::Selection>>>::_Vector_impl_data", ptr %7, i32 0, i32 2
  %9 = load ptr, ptr %8, align 8, !tbaa !86
  %10 = getelementptr inbounds nuw %"struct.std::_Vector_base.4", ptr %3, i32 0, i32 0
  %11 = getelementptr inbounds nuw %"struct.std::_Vector_base<std::pair<(anonymous namespace)::VizConfig::group_type_t, Yosys::RTLIL::Selection>, std::allocator<std::pair<(anonymous namespace)::VizConfig::group_type_t, Yosys::RTLIL::Selection>>>::_Vector_impl_data", ptr %10, i32 0, i32 0
  %12 = load ptr, ptr %11, align 8, !tbaa !84
  %13 = ptrtoint ptr %9 to i64
  %14 = ptrtoint ptr %12 to i64
  %15 = sub i64 %13, %14
  %16 = sdiv exact i64 %15, 128
  invoke void @_ZNSt12_Vector_baseISt4pairIN12_GLOBAL__N_19VizConfig12group_type_tEN5Yosys5RTLIL9SelectionEESaIS7_EE13_M_deallocateEPS7_m(ptr noundef nonnull align 8 dereferenceable(24) %3, ptr noundef %6, i64 noundef %16)
          to label %17 unwind label %19

17:                                               ; preds = %1
  %18 = getelementptr inbounds nuw %"struct.std::_Vector_base.4", ptr %3, i32 0, i32 0
  call void @_ZNSt15__new_allocatorISt4pairIN12_GLOBAL__N_19VizConfig12group_type_tEN5Yosys5RTLIL9SelectionEEED2Ev(ptr noundef nonnull align 8 dereferenceable(24) %18) #3
  ret void

19:                                               ; preds = %1
  %20 = landingpad { ptr, i32 }
          catch ptr null
  %21 = extractvalue { ptr, i32 } %20, 0
  call void @__clang_call_terminate(ptr %21) #21
  unreachable
}

; Function Attrs: inlinehint mustprogress uwtable
define internal void @_ZSt8_DestroyIPSt4pairIN12_GLOBAL__N_19VizConfig12group_type_tEN5Yosys5RTLIL9SelectionEES7_EvT_S9_RSaIT0_E(ptr noundef %0, ptr noundef %1, ptr noundef nonnull align 1 dereferenceable(1) %2) #9 {
  %4 = alloca ptr, align 8
  %5 = alloca ptr, align 8
  %6 = alloca ptr, align 8
  store ptr %0, ptr %4, align 8, !tbaa !89
  store ptr %1, ptr %5, align 8, !tbaa !89
  store ptr %2, ptr %6, align 8, !tbaa !80
  %7 = load ptr, ptr %4, align 8, !tbaa !89
  %8 = load ptr, ptr %5, align 8, !tbaa !89
  call void @_ZSt8_DestroyIPSt4pairIN12_GLOBAL__N_19VizConfig12group_type_tEN5Yosys5RTLIL9SelectionEEEvT_S9_(ptr noundef %7, ptr noundef %8)
  ret void
}

; Function Attrs: mustprogress nounwind uwtable
define internal noundef nonnull align 1 dereferenceable(1) ptr @_ZNSt12_Vector_baseISt4pairIN12_GLOBAL__N_19VizConfig12group_type_tEN5Yosys5RTLIL9SelectionEESaIS7_EE19_M_get_Tp_allocatorEv(ptr noundef nonnull align 8 dereferenceable(24) %0) #6 align 2 {
  %2 = alloca ptr, align 8
  store ptr %0, ptr %2, align 8, !tbaa !76
  %3 = load ptr, ptr %2, align 8
  %4 = getelementptr inbounds nuw %"struct.std::_Vector_base.4", ptr %3, i32 0, i32 0
  ret ptr %4
}

; Function Attrs: mustprogress nounwind uwtable
define internal void @_ZNSt6vectorISt4pairIN12_GLOBAL__N_19VizConfig12group_type_tEN5Yosys5RTLIL9SelectionEESaIS7_EED2Ev(ptr noundef nonnull align 8 dereferenceable(24) %0) unnamed_addr #6 align 2 personality ptr @__gxx_personality_v0 {
  %2 = alloca ptr, align 8
  store ptr %0, ptr %2, align 8, !tbaa !74
  %3 = load ptr, ptr %2, align 8
  %4 = getelementptr inbounds nuw %"struct.std::_Vector_base.4", ptr %3, i32 0, i32 0
  %5 = getelementptr inbounds nuw %"struct.std::_Vector_base<std::pair<(anonymous namespace)::VizConfig::group_type_t, Yosys::RTLIL::Selection>, std::allocator<std::pair<(anonymous namespace)::VizConfig::group_type_t, Yosys::RTLIL::Selection>>>::_Vector_impl_data", ptr %4, i32 0, i32 0
  %6 = load ptr, ptr %5, align 8, !tbaa !84
  %7 = getelementptr inbounds nuw %"struct.std::_Vector_base.4", ptr %3, i32 0, i32 0
  %8 = getelementptr inbounds nuw %"struct.std::_Vector_base<std::pair<(anonymous namespace)::VizConfig::group_type_t, Yosys::RTLIL::Selection>, std::allocator<std::pair<(anonymous namespace)::VizConfig::group_type_t, Yosys::RTLIL::Selection>>>::_Vector_impl_data", ptr %7, i32 0, i32 1
  %9 = load ptr, ptr %8, align 8, !tbaa !85
  %10 = call noundef nonnull align 1 dereferenceable(1) ptr @_ZNSt12_Vector_baseISt4pairIN12_GLOBAL__N_19VizConfig12group_type_tEN5Yosys5RTLIL9SelectionEESaIS7_EE19_M_get_Tp_allocatorEv(ptr noundef nonnull align 8 dereferenceable(24) %3) #3
  invoke void @_ZSt8_DestroyIPSt4pairIN12_GLOBAL__N_19VizConfig12group_type_tEN5Yosys5RTLIL9SelectionEES7_EvT_S9_RSaIT0_E(ptr noundef %6, ptr noundef %9, ptr noundef nonnull align 1 dereferenceable(1) %10)
          to label %11 unwind label %12

11:                                               ; preds = %1
  call void @_ZNSt12_Vector_baseISt4pairIN12_GLOBAL__N_19VizConfig12group_type_tEN5Yosys5RTLIL9SelectionEESaIS7_EED2Ev(ptr noundef nonnull align 8 dereferenceable(24) %3) #3
  ret void

12:                                               ; preds = %1
  %13 = landingpad { ptr, i32 }
          catch ptr null
  %14 = extractvalue { ptr, i32 } %13, 0
  call void @__clang_call_terminate(ptr %14) #21
  unreachable
}

; Function Attrs: inlinehint mustprogress nounwind uwtable
define internal void @_ZN12_GLOBAL__N_19VizConfigD2Ev(ptr noundef nonnull align 8 dereferenceable(40) %0) unnamed_addr #7 align 2 {
  %2 = alloca ptr, align 8
  store ptr %0, ptr %2, align 8, !tbaa !69
  %3 = load ptr, ptr %2, align 8
  %4 = getelementptr inbounds nuw %"struct.(anonymous namespace)::VizConfig", ptr %3, i32 0, i32 4
  call void @_ZNSt6vectorISt4pairIN12_GLOBAL__N_19VizConfig12group_type_tEN5Yosys5RTLIL9SelectionEESaIS7_EED2Ev(ptr noundef nonnull align 8 dereferenceable(24) %4) #3
  ret void
}

; Function Attrs: inlinehint mustprogress nounwind uwtable
define internal void @_ZN12_GLOBAL__N_19VizWorkerD2Ev(ptr noundef nonnull align 8 dereferenceable(216) %0) unnamed_addr #7 align 2 {
  %2 = alloca ptr, align 8
  store ptr %0, ptr %2, align 8, !tbaa !283
  %3 = load ptr, ptr %2, align 8
  %4 = getelementptr inbounds nuw %"struct.(anonymous namespace)::VizWorker", ptr %3, i32 0, i32 2
  call void @_ZN12_GLOBAL__N_15GraphD2Ev(ptr noundef nonnull align 8 dereferenceable(168) %4) #3
  %5 = getelementptr inbounds nuw %"struct.(anonymous namespace)::VizWorker", ptr %3, i32 0, i32 0
  call void @_ZN12_GLOBAL__N_19VizConfigD2Ev(ptr noundef nonnull align 8 dereferenceable(40) %5) #3
  ret void
}