; Function Attrs: inlinehint mustprogress nounwind uwtable
define internal fastcc void @_ZN12_GLOBAL__N_19VizWorkerD2Ev(ptr noundef nonnull readonly align 8 captures(none) dereferenceable(216) %0) unnamed_addr #4 align 2 personality ptr @__gxx_personality_v0 {
  %2 = getelementptr inbounds nuw i8, ptr %0, i64 48
  tail call fastcc void @_ZN12_GLOBAL__N_15GraphD2Ev(ptr noundef nonnull align 8 dereferenceable(168) %2) #32
  %3 = getelementptr inbounds nuw i8, ptr %0, i64 16
  %4 = load ptr, ptr %3, align 8, !tbaa !73
  %5 = getelementptr inbounds nuw i8, ptr %0, i64 24
  %6 = load ptr, ptr %5, align 8, !tbaa !59
  %.not4.i.i.i.i.i = icmp eq ptr %4, %6
  br i1 %.not4.i.i.i.i.i, label %_ZSt8_DestroyIPSt4pairIN12_GLOBAL__N_19VizConfig12group_type_tEN5Yosys5RTLIL9SelectionEES7_EvT_S9_RSaIT0_E.exit.i.i, label %.lr.ph.i.i.i.i.i

.lr.ph.i.i.i.i.i:                                 ; preds = %1, %.lr.ph.i.i.i.i.i
  %.05.i.i.i.i.i = phi ptr [ %8, %.lr.ph.i.i.i.i.i ], [ %4, %1 ]
  %7 = getelementptr inbounds nuw i8, ptr %.05.i.i.i.i.i, i64 8
  tail call void @_ZN5Yosys5RTLIL9SelectionD2Ev(ptr noundef nonnull align 8 dereferenceable(120) %7) #32
  %8 = getelementptr inbounds nuw i8, ptr %.05.i.i.i.i.i, i64 128
  %.not.i.i.i.i.i = icmp eq ptr %8, %6
  br i1 %.not.i.i.i.i.i, label %_ZSt8_DestroyIPSt4pairIN12_GLOBAL__N_19VizConfig12group_type_tEN5Yosys5RTLIL9SelectionEES7_EvT_S9_RSaIT0_E.exitthread-pre-split.i.i, label %.lr.ph.i.i.i.i.i, !llvm.loop !75

_ZSt8_DestroyIPSt4pairIN12_GLOBAL__N_19VizConfig12group_type_tEN5Yosys5RTLIL9SelectionEES7_EvT_S9_RSaIT0_E.exitthread-pre-split.i.i: ; preds = %.lr.ph.i.i.i.i.i
  %.val.pr.i.i = load ptr, ptr %3, align 8, !tbaa !73
  br label %_ZSt8_DestroyIPSt4pairIN12_GLOBAL__N_19VizConfig12group_type_tEN5Yosys5RTLIL9SelectionEES7_EvT_S9_RSaIT0_E.exit.i.i

_ZSt8_DestroyIPSt4pairIN12_GLOBAL__N_19VizConfig12group_type_tEN5Yosys5RTLIL9SelectionEES7_EvT_S9_RSaIT0_E.exit.i.i: ; preds = %_ZSt8_DestroyIPSt4pairIN12_GLOBAL__N_19VizConfig12group_type_tEN5Yosys5RTLIL9SelectionEES7_EvT_S9_RSaIT0_E.exitthread-pre-split.i.i, %1
  %.val.i.i = phi ptr [ %.val.pr.i.i, %_ZSt8_DestroyIPSt4pairIN12_GLOBAL__N_19VizConfig12group_type_tEN5Yosys5RTLIL9SelectionEES7_EvT_S9_RSaIT0_E.exitthread-pre-split.i.i ], [ %4, %1 ]
  %.not.i.i.i.i = icmp eq ptr %.val.i.i, null
  br i1 %.not.i.i.i.i, label %_ZN12_GLOBAL__N_19VizConfigD2Ev.exit, label %9

9:                                                ; preds = %_ZSt8_DestroyIPSt4pairIN12_GLOBAL__N_19VizConfig12group_type_tEN5Yosys5RTLIL9SelectionEES7_EvT_S9_RSaIT0_E.exit.i.i
  %10 = getelementptr inbounds nuw i8, ptr %0, i64 32
  %.val1.i.i = load ptr, ptr %10, align 8, !tbaa !60
  %11 = ptrtoint ptr %.val1.i.i to i64
  %12 = ptrtoint ptr %.val.i.i to i64
  %13 = sub i64 %11, %12
  tail call void @_ZdlPvm(ptr noundef nonnull %.val.i.i, i64 noundef %13) #33
  br label %_ZN12_GLOBAL__N_19VizConfigD2Ev.exit

_ZN12_GLOBAL__N_19VizConfigD2Ev.exit:             ; preds = %_ZSt8_DestroyIPSt4pairIN12_GLOBAL__N_19VizConfig12group_type_tEN5Yosys5RTLIL9SelectionEES7_EvT_S9_RSaIT0_E.exit.i.i, %9
  ret void
}